target datalayout = "e-m:e-p270:32:32-p271:32:32-p272:64:64-i64:64-i128:128-f80:128-n8:16:32:64-S128"
target triple = "x86_64-pc-linux-gnu"

%struct.ossl_provider_st = type { i32 }
%struct.anon.3 = type { i32, ptr, ptr }

@.str.12 = private unnamed_addr constant [32 x i8] c"../openssl/test/property_test.c\00", align 1
@.str.70 = private unnamed_addr constant [36 x i8] c"store = ossl_method_store_new(NULL)\00", align 1
@__const.test_register_deregister.prov = private unnamed_addr constant %struct.ossl_provider_st { i32 1 }, align 4
@.str.210 = private unnamed_addr constant [9 x i8] c"position\00", align 1
@.str.211 = private unnamed_addr constant [100 x i8] c"ossl_method_store_add(store, &prov, impls[i].nid, impls[i].prop, impls[i].impl, &up_ref, &down_ref)\00", align 1
@.str.212 = private unnamed_addr constant [14 x i8] c"iteration %zd\00", align 1
@.str.213 = private unnamed_addr constant [43 x i8] c"ossl_method_store_remove(store, nid, impl)\00", align 1
@.str.214 = private unnamed_addr constant [28 x i8] c"iteration %zd, position %zd\00", align 1
@.str.215 = private unnamed_addr constant [61 x i8] c"ossl_method_store_remove(store, impls[0].nid, impls[0].impl)\00", align 1

; Function Attrs: nounwind uwtable
define internal i32 @test_register_deregister() #0 {
  %1 = alloca i32, align 4
  %2 = alloca i64, align 8
  %3 = alloca i32, align 4
  %4 = alloca ptr, align 8
  %5 = alloca %struct.ossl_provider_st, align 4
  %6 = alloca i64, align 8
  %7 = alloca i32, align 4
  %8 = alloca ptr, align 8
  %9 = alloca i32, align 4
  call void @llvm.lifetime.start.p0(i64 8, ptr %2) #6
  call void @llvm.lifetime.start.p0(i64 4, ptr %3) #6
  store i32 0, ptr %3, align 4, !tbaa !9
  call void @llvm.lifetime.start.p0(i64 8, ptr %4) #6
  call void @llvm.lifetime.start.p0(i64 4, ptr %5) #6
  call void @llvm.memcpy.p0.p0.i64(ptr align 4 %5, ptr align 4 @__const.test_register_deregister.prov, i64 4, i1 false)
  %10 = call ptr @ossl_method_store_new(ptr noundef null)
  store ptr %10, ptr %4, align 8, !tbaa !4
  %11 = call i32 @test_ptr(ptr noundef @.str.12, i32 noundef 388, ptr noundef @.str.70, ptr noundef %10)
  %12 = icmp ne i32 %11, 0
  br i1 %12, label %13, label %16

13:                                               ; preds = %0
  %14 = call i32 (ptr, ...) @add_property_names(ptr noundef @.str.210, ptr noundef null)
  %15 = icmp ne i32 %14, 0
  br i1 %15, label %17, label %16

16:                                               ; preds = %13, %0
  br label %103

17:                                               ; preds = %13
  store i64 0, ptr %2, align 8, !tbaa !28
  br label %18

18:                                               ; preds = %44, %17
  %19 = load i64, ptr %2, align 8, !tbaa !28
  %20 = icmp ult i64 %19, 4
  br i1 %20, label %21, label %47

21:                                               ; preds = %18
  %22 = load ptr, ptr %4, align 8, !tbaa !4
  %23 = load i64, ptr %2, align 8, !tbaa !28
  %24 = getelementptr inbounds nuw [4 x %struct.anon.3], ptr @test_register_deregister.impls, i64 0, i64 %23
  %25 = getelementptr inbounds nuw %struct.anon.3, ptr %24, i32 0, i32 0
  %26 = load i32, ptr %25, align 8, !tbaa !30
  %27 = load i64, ptr %2, align 8, !tbaa !28
  %28 = getelementptr inbounds nuw [4 x %struct.anon.3], ptr @test_register_deregister.impls, i64 0, i64 %27
  %29 = getelementptr inbounds nuw %struct.anon.3, ptr %28, i32 0, i32 1
  %30 = load ptr, ptr %29, align 8, !tbaa !32
  %31 = load i64, ptr %2, align 8, !tbaa !28
  %32 = getelementptr inbounds nuw [4 x %struct.anon.3], ptr @test_register_deregister.impls, i64 0, i64 %31
  %33 = getelementptr inbounds nuw %struct.anon.3, ptr %32, i32 0, i32 2
  %34 = load ptr, ptr %33, align 8, !tbaa !33
  %35 = call i32 @ossl_method_store_add(ptr noundef %22, ptr noundef %5, i32 noundef %26, ptr noundef %30, ptr noundef %34, ptr noundef @up_ref, ptr noundef @down_ref)
  %36 = icmp ne i32 %35, 0
  %37 = zext i1 %36 to i32
  %38 = call i32 @test_true(ptr noundef @.str.12, i32 noundef 395, ptr noundef @.str.211, i32 noundef %37)
  %39 = icmp ne i32 %38, 0
  br i1 %39, label %43, label %40

40:                                               ; preds = %21
  %41 = load i64, ptr %2, align 8, !tbaa !28
  %42 = add i64 %41, 1
  call void (ptr, ...) @test_note(ptr noundef @.str.212, i64 noundef %42)
  br label %103

43:                                               ; preds = %21
  br label %44

44:                                               ; preds = %43
  %45 = load i64, ptr %2, align 8, !tbaa !28
  %46 = add i64 %45, 1
  store i64 %46, ptr %2, align 8, !tbaa !28
  br label %18, !llvm.loop !34

47:                                               ; preds = %18
  store i64 0, ptr %2, align 8, !tbaa !28
  br label %48

48:                                               ; preds = %90, %47
  %49 = load i64, ptr %2, align 8, !tbaa !28
  %50 = icmp ult i64 %49, 4
  br i1 %50, label %51, label %93

51:                                               ; preds = %48
  call void @llvm.lifetime.start.p0(i64 8, ptr %6) #6
  %52 = load i64, ptr %2, align 8, !tbaa !28
  %53 = mul i64 %52, 3
  %54 = add i64 1, %53
  %55 = urem i64 %54, 4
  store i64 %55, ptr %6, align 8, !tbaa !28
  call void @llvm.lifetime.start.p0(i64 4, ptr %7) #6
  %56 = load i64, ptr %6, align 8, !tbaa !28
  %57 = getelementptr inbounds nuw [4 x %struct.anon.3], ptr @test_register_deregister.impls, i64 0, i64 %56
  %58 = getelementptr inbounds nuw %struct.anon.3, ptr %57, i32 0, i32 0
  %59 = load i32, ptr %58, align 8, !tbaa !30
  store i32 %59, ptr %7, align 4, !tbaa !9
  call void @llvm.lifetime.start.p0(i64 8, ptr %8) #6
  %60 = load i64, ptr %6, align 8, !tbaa !28
  %61 = getelementptr inbounds nuw [4 x %struct.anon.3], ptr @test_register_deregister.impls, i64 0, i64 %60
  %62 = getelementptr inbounds nuw %struct.anon.3, ptr %61, i32 0, i32 2
  %63 = load ptr, ptr %62, align 8, !tbaa !33
  store ptr %63, ptr %8, align 8, !tbaa !36
  %64 = load ptr, ptr %4, align 8, !tbaa !4
  %65 = load i32, ptr %7, align 4, !tbaa !9
  %66 = load ptr, ptr %8, align 8, !tbaa !36
  %67 = call i32 @ossl_method_store_remove(ptr noundef %64, i32 noundef %65, ptr noundef %66)
  %68 = icmp ne i32 %67, 0
  %69 = zext i1 %68 to i32
  %70 = call i32 @test_true(ptr noundef @.str.12, i32 noundef 406, ptr noundef @.str.213, i32 noundef %69)
  %71 = icmp ne i32 %70, 0
  br i1 %71, label %72, label %81

72:                                               ; preds = %51
  %73 = load ptr, ptr %4, align 8, !tbaa !4
  %74 = load i32, ptr %7, align 4, !tbaa !9
  %75 = load ptr, ptr %8, align 8, !tbaa !36
  %76 = call i32 @ossl_method_store_remove(ptr noundef %73, i32 noundef %74, ptr noundef %75)
  %77 = icmp ne i32 %76, 0
  %78 = zext i1 %77 to i32
  %79 = call i32 @test_false(ptr noundef @.str.12, i32 noundef 407, ptr noundef @.str.213, i32 noundef %78)
  %80 = icmp ne i32 %79, 0
  br i1 %80, label %86, label %81

81:                                               ; preds = %72, %51
  %82 = load i64, ptr %2, align 8, !tbaa !28
  %83 = add i64 %82, 1
  %84 = load i64, ptr %6, align 8, !tbaa !28
  %85 = add i64 %84, 1
  call void (ptr, ...) @test_note(ptr noundef @.str.214, i64 noundef %83, i64 noundef %85)
  store i32 2, ptr %9, align 4
  br label %87

86:                                               ; preds = %72
  store i32 0, ptr %9, align 4
  br label %87

87:                                               ; preds = %81, %86
  call void @llvm.lifetime.end.p0(i64 8, ptr %8) #6
  call void @llvm.lifetime.end.p0(i64 4, ptr %7) #6
  call void @llvm.lifetime.end.p0(i64 8, ptr %6) #6
  %88 = load i32, ptr %9, align 4
  switch i32 %88, label %106 [
    i32 0, label %89
    i32 2, label %103
  ]

89:                                               ; preds = %87
  br label %90

90:                                               ; preds = %89
  %91 = load i64, ptr %2, align 8, !tbaa !28
  %92 = add i64 %91, 1
  store i64 %92, ptr %2, align 8, !tbaa !28
  br label %48, !llvm.loop !37

93:                                               ; preds = %48
  %94 = load ptr, ptr %4, align 8, !tbaa !4
  %95 = load ptr, ptr getelementptr inbounds nuw (%struct.anon.3, ptr @test_register_deregister.impls, i32 0, i32 2), align 16, !tbaa !33
  %96 = call i32 @ossl_method_store_remove(ptr noundef %94, i32 noundef 6, ptr noundef %95)
  %97 = icmp ne i32 %96, 0
  %98 = zext i1 %97 to i32
  %99 = call i32 @test_false(ptr noundef @.str.12, i32 noundef 413, ptr noundef @.str.215, i32 noundef %98)
  %100 = icmp ne i32 %99, 0
  br i1 %100, label %101, label %102

101:                                              ; preds = %93
  store i32 1, ptr %3, align 4, !tbaa !9
  br label %102

102:                                              ; preds = %101, %93
  br label %103

103:                                              ; preds = %102, %87, %40, %16
  %104 = load ptr, ptr %4, align 8, !tbaa !4
  call void @ossl_method_store_free(ptr noundef %104)
  %105 = load i32, ptr %3, align 4, !tbaa !9
  store i32 %105, ptr %1, align 4
  store i32 1, ptr %9, align 4
  br label %106

106:                                              ; preds = %103, %87
  call void @llvm.lifetime.end.p0(i64 4, ptr %5) #6
  call void @llvm.lifetime.end.p0(i64 8, ptr %4) #6
  call void @llvm.lifetime.end.p0(i64 4, ptr %3) #6
  call void @llvm.lifetime.end.p0(i64 8, ptr %2) #6
  %107 = load i32, ptr %1, align 4
  ret i32 %107
}